; Function Attrs: null_pointer_is_valid sspstrong uwtable
define internal noundef zeroext i16 @de_bssgp_nsei(ptr noundef %0, ptr noundef %1, ptr noundef readonly captures(none) %2, i32 noundef %3, i32 %4, ptr readnone captures(none) %5, i32 %6) #1 {
  %8 = tail call zeroext i16 @tvb_get_ntohs(ptr noundef %0, i32 noundef %3)
  %9 = load i32, ptr @hf_bssgp_nsei, align 4
  %10 = tail call ptr @proto_tree_add_item(ptr noundef %1, i32 noundef %9, ptr noundef %0, i32 noundef %3, i32 noundef 2, i32 noundef 0)
  %11 = getelementptr inbounds nuw i8, ptr %2, i64 8
  %12 = load ptr, ptr %11, align 8
  %13 = zext i16 %8 to i32
  tail call void (ptr, i32, ptr, ptr, ...) @col_append_sep_fstr(ptr noundef %12, i32 noundef 25, ptr noundef nonnull @.str.456, ptr noundef nonnull @.str.457, i32 noundef %13)
  ret i16 2
}